
output/rv32ui-p-sll:     file format elf32-littleriscv


Disassembly of section .text.init:

01000000 <_start>:
 1000000:	00100093          	addi	x1,x0,1
 1000004:	00000113          	addi	x2,x0,0
 1000008:	00209f33          	sll	x30,x1,x2
 100000c:	00100e93          	addi	x29,x0,1
 1000010:	00200193          	addi	x3,x0,2
 1000014:	53df1e63          	bne	x30,x29,1000550 <fail>

01000018 <test_3>:
 1000018:	00100093          	addi	x1,x0,1
 100001c:	00100113          	addi	x2,x0,1
 1000020:	00209f33          	sll	x30,x1,x2
 1000024:	00200e93          	addi	x29,x0,2
 1000028:	00300193          	addi	x3,x0,3
 100002c:	53df1263          	bne	x30,x29,1000550 <fail>

01000030 <test_4>:
 1000030:	00100093          	addi	x1,x0,1
 1000034:	00700113          	addi	x2,x0,7
 1000038:	00209f33          	sll	x30,x1,x2
 100003c:	08000e93          	addi	x29,x0,128
 1000040:	00400193          	addi	x3,x0,4
 1000044:	51df1663          	bne	x30,x29,1000550 <fail>

01000048 <test_5>:
 1000048:	00100093          	addi	x1,x0,1
 100004c:	00e00113          	addi	x2,x0,14
 1000050:	00209f33          	sll	x30,x1,x2
 1000054:	00004eb7          	lui	x29,0x4
 1000058:	00500193          	addi	x3,x0,5
 100005c:	4fdf1a63          	bne	x30,x29,1000550 <fail>

01000060 <test_6>:
 1000060:	00100093          	addi	x1,x0,1
 1000064:	01f00113          	addi	x2,x0,31
 1000068:	00209f33          	sll	x30,x1,x2
 100006c:	80000eb7          	lui	x29,0x80000
 1000070:	00600193          	addi	x3,x0,6
 1000074:	4ddf1e63          	bne	x30,x29,1000550 <fail>

01000078 <test_7>:
 1000078:	fff00093          	addi	x1,x0,-1
 100007c:	00000113          	addi	x2,x0,0
 1000080:	00209f33          	sll	x30,x1,x2
 1000084:	fff00e93          	addi	x29,x0,-1
 1000088:	00700193          	addi	x3,x0,7
 100008c:	4ddf1263          	bne	x30,x29,1000550 <fail>

01000090 <test_8>:
 1000090:	fff00093          	addi	x1,x0,-1
 1000094:	00100113          	addi	x2,x0,1
 1000098:	00209f33          	sll	x30,x1,x2
 100009c:	ffe00e93          	addi	x29,x0,-2
 10000a0:	00800193          	addi	x3,x0,8
 10000a4:	4bdf1663          	bne	x30,x29,1000550 <fail>

010000a8 <test_9>:
 10000a8:	fff00093          	addi	x1,x0,-1
 10000ac:	00700113          	addi	x2,x0,7
 10000b0:	00209f33          	sll	x30,x1,x2
 10000b4:	f8000e93          	addi	x29,x0,-128
 10000b8:	00900193          	addi	x3,x0,9
 10000bc:	49df1a63          	bne	x30,x29,1000550 <fail>

010000c0 <test_10>:
 10000c0:	fff00093          	addi	x1,x0,-1
 10000c4:	00e00113          	addi	x2,x0,14
 10000c8:	00209f33          	sll	x30,x1,x2
 10000cc:	ffffceb7          	lui	x29,0xffffc
 10000d0:	00a00193          	addi	x3,x0,10
 10000d4:	47df1e63          	bne	x30,x29,1000550 <fail>

010000d8 <test_11>:
 10000d8:	fff00093          	addi	x1,x0,-1
 10000dc:	01f00113          	addi	x2,x0,31
 10000e0:	00209f33          	sll	x30,x1,x2
 10000e4:	80000eb7          	lui	x29,0x80000
 10000e8:	00b00193          	addi	x3,x0,11
 10000ec:	47df1263          	bne	x30,x29,1000550 <fail>

010000f0 <test_12>:
 10000f0:	212120b7          	lui	x1,0x21212
 10000f4:	12108093          	addi	x1,x1,289 # 21212121 <begin_signature+0x20211b01>
 10000f8:	00000113          	addi	x2,x0,0
 10000fc:	00209f33          	sll	x30,x1,x2
 1000100:	21212eb7          	lui	x29,0x21212
 1000104:	121e8e93          	addi	x29,x29,289 # 21212121 <begin_signature+0x20211b01>
 1000108:	00c00193          	addi	x3,x0,12
 100010c:	45df1263          	bne	x30,x29,1000550 <fail>

01000110 <test_13>:
 1000110:	212120b7          	lui	x1,0x21212
 1000114:	12108093          	addi	x1,x1,289 # 21212121 <begin_signature+0x20211b01>
 1000118:	00100113          	addi	x2,x0,1
 100011c:	00209f33          	sll	x30,x1,x2
 1000120:	42424eb7          	lui	x29,0x42424
 1000124:	242e8e93          	addi	x29,x29,578 # 42424242 <begin_signature+0x41423c22>
 1000128:	00d00193          	addi	x3,x0,13
 100012c:	43df1263          	bne	x30,x29,1000550 <fail>

01000130 <test_14>:
 1000130:	212120b7          	lui	x1,0x21212
 1000134:	12108093          	addi	x1,x1,289 # 21212121 <begin_signature+0x20211b01>
 1000138:	00700113          	addi	x2,x0,7
 100013c:	00209f33          	sll	x30,x1,x2
 1000140:	90909eb7          	lui	x29,0x90909
 1000144:	080e8e93          	addi	x29,x29,128 # 90909080 <begin_signature+0x8f908a60>
 1000148:	00e00193          	addi	x3,x0,14
 100014c:	41df1263          	bne	x30,x29,1000550 <fail>

01000150 <test_15>:
 1000150:	212120b7          	lui	x1,0x21212
 1000154:	12108093          	addi	x1,x1,289 # 21212121 <begin_signature+0x20211b01>
 1000158:	00e00113          	addi	x2,x0,14
 100015c:	00209f33          	sll	x30,x1,x2
 1000160:	48484eb7          	lui	x29,0x48484
 1000164:	00f00193          	addi	x3,x0,15
 1000168:	3fdf1463          	bne	x30,x29,1000550 <fail>

0100016c <test_16>:
 100016c:	212120b7          	lui	x1,0x21212
 1000170:	12108093          	addi	x1,x1,289 # 21212121 <begin_signature+0x20211b01>
 1000174:	01f00113          	addi	x2,x0,31
 1000178:	00209f33          	sll	x30,x1,x2
 100017c:	80000eb7          	lui	x29,0x80000
 1000180:	01000193          	addi	x3,x0,16
 1000184:	3ddf1663          	bne	x30,x29,1000550 <fail>

01000188 <test_17>:
 1000188:	212120b7          	lui	x1,0x21212
 100018c:	12108093          	addi	x1,x1,289 # 21212121 <begin_signature+0x20211b01>
 1000190:	fc000113          	addi	x2,x0,-64
 1000194:	00209f33          	sll	x30,x1,x2
 1000198:	21212eb7          	lui	x29,0x21212
 100019c:	121e8e93          	addi	x29,x29,289 # 21212121 <begin_signature+0x20211b01>
 10001a0:	01100193          	addi	x3,x0,17
 10001a4:	3bdf1663          	bne	x30,x29,1000550 <fail>

010001a8 <test_18>:
 10001a8:	212120b7          	lui	x1,0x21212
 10001ac:	12108093          	addi	x1,x1,289 # 21212121 <begin_signature+0x20211b01>
 10001b0:	fc100113          	addi	x2,x0,-63
 10001b4:	00209f33          	sll	x30,x1,x2
 10001b8:	42424eb7          	lui	x29,0x42424
 10001bc:	242e8e93          	addi	x29,x29,578 # 42424242 <begin_signature+0x41423c22>
 10001c0:	01200193          	addi	x3,x0,18
 10001c4:	39df1663          	bne	x30,x29,1000550 <fail>

010001c8 <test_19>:
 10001c8:	212120b7          	lui	x1,0x21212
 10001cc:	12108093          	addi	x1,x1,289 # 21212121 <begin_signature+0x20211b01>
 10001d0:	fc700113          	addi	x2,x0,-57
 10001d4:	00209f33          	sll	x30,x1,x2
 10001d8:	90909eb7          	lui	x29,0x90909
 10001dc:	080e8e93          	addi	x29,x29,128 # 90909080 <begin_signature+0x8f908a60>
 10001e0:	01300193          	addi	x3,x0,19
 10001e4:	37df1663          	bne	x30,x29,1000550 <fail>

010001e8 <test_20>:
 10001e8:	212120b7          	lui	x1,0x21212
 10001ec:	12108093          	addi	x1,x1,289 # 21212121 <begin_signature+0x20211b01>
 10001f0:	fce00113          	addi	x2,x0,-50
 10001f4:	00209f33          	sll	x30,x1,x2
 10001f8:	48484eb7          	lui	x29,0x48484
 10001fc:	01400193          	addi	x3,x0,20
 1000200:	35df1863          	bne	x30,x29,1000550 <fail>

01000204 <test_22>:
 1000204:	00100093          	addi	x1,x0,1
 1000208:	00700113          	addi	x2,x0,7
 100020c:	002090b3          	sll	x1,x1,x2
 1000210:	08000e93          	addi	x29,x0,128
 1000214:	01600193          	addi	x3,x0,22
 1000218:	33d09c63          	bne	x1,x29,1000550 <fail>

0100021c <test_23>:
 100021c:	00100093          	addi	x1,x0,1
 1000220:	00e00113          	addi	x2,x0,14
 1000224:	00209133          	sll	x2,x1,x2
 1000228:	00004eb7          	lui	x29,0x4
 100022c:	01700193          	addi	x3,x0,23
 1000230:	33d11063          	bne	x2,x29,1000550 <fail>

01000234 <test_24>:
 1000234:	00300093          	addi	x1,x0,3
 1000238:	001090b3          	sll	x1,x1,x1
 100023c:	01800e93          	addi	x29,x0,24
 1000240:	01800193          	addi	x3,x0,24
 1000244:	31d09663          	bne	x1,x29,1000550 <fail>

01000248 <test_25>:
 1000248:	00000213          	addi	x4,x0,0
 100024c:	00100093          	addi	x1,x0,1
 1000250:	00700113          	addi	x2,x0,7
 1000254:	00209f33          	sll	x30,x1,x2
 1000258:	000f0313          	addi	x6,x30,0
 100025c:	00120213          	addi	x4,x4,1 # 1 <_start-0xffffff>
 1000260:	00200293          	addi	x5,x0,2
 1000264:	fe5214e3          	bne	x4,x5,100024c <test_25+0x4>
 1000268:	08000e93          	addi	x29,x0,128
 100026c:	01900193          	addi	x3,x0,25
 1000270:	2fd31063          	bne	x6,x29,1000550 <fail>

01000274 <test_26>:
 1000274:	00000213          	addi	x4,x0,0
 1000278:	00100093          	addi	x1,x0,1
 100027c:	00e00113          	addi	x2,x0,14
 1000280:	00209f33          	sll	x30,x1,x2
 1000284:	00000013          	addi	x0,x0,0
 1000288:	000f0313          	addi	x6,x30,0
 100028c:	00120213          	addi	x4,x4,1 # 1 <_start-0xffffff>
 1000290:	00200293          	addi	x5,x0,2
 1000294:	fe5212e3          	bne	x4,x5,1000278 <test_26+0x4>
 1000298:	00004eb7          	lui	x29,0x4
 100029c:	01a00193          	addi	x3,x0,26
 10002a0:	2bd31863          	bne	x6,x29,1000550 <fail>

010002a4 <test_27>:
 10002a4:	00000213          	addi	x4,x0,0
 10002a8:	00100093          	addi	x1,x0,1
 10002ac:	01f00113          	addi	x2,x0,31
 10002b0:	00209f33          	sll	x30,x1,x2
 10002b4:	00000013          	addi	x0,x0,0
 10002b8:	00000013          	addi	x0,x0,0
 10002bc:	000f0313          	addi	x6,x30,0
 10002c0:	00120213          	addi	x4,x4,1 # 1 <_start-0xffffff>
 10002c4:	00200293          	addi	x5,x0,2
 10002c8:	fe5210e3          	bne	x4,x5,10002a8 <test_27+0x4>
 10002cc:	80000eb7          	lui	x29,0x80000
 10002d0:	01b00193          	addi	x3,x0,27
 10002d4:	27d31e63          	bne	x6,x29,1000550 <fail>

010002d8 <test_28>:
 10002d8:	00000213          	addi	x4,x0,0
 10002dc:	00100093          	addi	x1,x0,1
 10002e0:	00700113          	addi	x2,x0,7
 10002e4:	00209f33          	sll	x30,x1,x2
 10002e8:	00120213          	addi	x4,x4,1 # 1 <_start-0xffffff>
 10002ec:	00200293          	addi	x5,x0,2
 10002f0:	fe5216e3          	bne	x4,x5,10002dc <test_28+0x4>
 10002f4:	08000e93          	addi	x29,x0,128
 10002f8:	01c00193          	addi	x3,x0,28
 10002fc:	25df1a63          	bne	x30,x29,1000550 <fail>

01000300 <test_29>:
 1000300:	00000213          	addi	x4,x0,0
 1000304:	00100093          	addi	x1,x0,1
 1000308:	00e00113          	addi	x2,x0,14
 100030c:	00000013          	addi	x0,x0,0
 1000310:	00209f33          	sll	x30,x1,x2
 1000314:	00120213          	addi	x4,x4,1 # 1 <_start-0xffffff>
 1000318:	00200293          	addi	x5,x0,2
 100031c:	fe5214e3          	bne	x4,x5,1000304 <test_29+0x4>
 1000320:	00004eb7          	lui	x29,0x4
 1000324:	01d00193          	addi	x3,x0,29
 1000328:	23df1463          	bne	x30,x29,1000550 <fail>

0100032c <test_30>:
 100032c:	00000213          	addi	x4,x0,0
 1000330:	00100093          	addi	x1,x0,1
 1000334:	01f00113          	addi	x2,x0,31
 1000338:	00000013          	addi	x0,x0,0
 100033c:	00000013          	addi	x0,x0,0
 1000340:	00209f33          	sll	x30,x1,x2
 1000344:	00120213          	addi	x4,x4,1 # 1 <_start-0xffffff>
 1000348:	00200293          	addi	x5,x0,2
 100034c:	fe5212e3          	bne	x4,x5,1000330 <test_30+0x4>
 1000350:	80000eb7          	lui	x29,0x80000
 1000354:	01e00193          	addi	x3,x0,30
 1000358:	1fdf1c63          	bne	x30,x29,1000550 <fail>

0100035c <test_31>:
 100035c:	00000213          	addi	x4,x0,0
 1000360:	00100093          	addi	x1,x0,1
 1000364:	00000013          	addi	x0,x0,0
 1000368:	00700113          	addi	x2,x0,7
 100036c:	00209f33          	sll	x30,x1,x2
 1000370:	00120213          	addi	x4,x4,1 # 1 <_start-0xffffff>
 1000374:	00200293          	addi	x5,x0,2
 1000378:	fe5214e3          	bne	x4,x5,1000360 <test_31+0x4>
 100037c:	08000e93          	addi	x29,x0,128
 1000380:	01f00193          	addi	x3,x0,31
 1000384:	1ddf1663          	bne	x30,x29,1000550 <fail>

01000388 <test_32>:
 1000388:	00000213          	addi	x4,x0,0
 100038c:	00100093          	addi	x1,x0,1
 1000390:	00000013          	addi	x0,x0,0
 1000394:	00e00113          	addi	x2,x0,14
 1000398:	00000013          	addi	x0,x0,0
 100039c:	00209f33          	sll	x30,x1,x2
 10003a0:	00120213          	addi	x4,x4,1 # 1 <_start-0xffffff>
 10003a4:	00200293          	addi	x5,x0,2
 10003a8:	fe5212e3          	bne	x4,x5,100038c <test_32+0x4>
 10003ac:	00004eb7          	lui	x29,0x4
 10003b0:	02000193          	addi	x3,x0,32
 10003b4:	19df1e63          	bne	x30,x29,1000550 <fail>

010003b8 <test_33>:
 10003b8:	00000213          	addi	x4,x0,0
 10003bc:	00100093          	addi	x1,x0,1
 10003c0:	00000013          	addi	x0,x0,0
 10003c4:	00000013          	addi	x0,x0,0
 10003c8:	01f00113          	addi	x2,x0,31
 10003cc:	00209f33          	sll	x30,x1,x2
 10003d0:	00120213          	addi	x4,x4,1 # 1 <_start-0xffffff>
 10003d4:	00200293          	addi	x5,x0,2
 10003d8:	fe5212e3          	bne	x4,x5,10003bc <test_33+0x4>
 10003dc:	80000eb7          	lui	x29,0x80000
 10003e0:	02100193          	addi	x3,x0,33
 10003e4:	17df1663          	bne	x30,x29,1000550 <fail>

010003e8 <test_34>:
 10003e8:	00000213          	addi	x4,x0,0
 10003ec:	00700113          	addi	x2,x0,7
 10003f0:	00100093          	addi	x1,x0,1
 10003f4:	00209f33          	sll	x30,x1,x2
 10003f8:	00120213          	addi	x4,x4,1 # 1 <_start-0xffffff>
 10003fc:	00200293          	addi	x5,x0,2
 1000400:	fe5216e3          	bne	x4,x5,10003ec <test_34+0x4>
 1000404:	08000e93          	addi	x29,x0,128
 1000408:	02200193          	addi	x3,x0,34
 100040c:	15df1263          	bne	x30,x29,1000550 <fail>

01000410 <test_35>:
 1000410:	00000213          	addi	x4,x0,0
 1000414:	00e00113          	addi	x2,x0,14
 1000418:	00100093          	addi	x1,x0,1
 100041c:	00000013          	addi	x0,x0,0
 1000420:	00209f33          	sll	x30,x1,x2
 1000424:	00120213          	addi	x4,x4,1 # 1 <_start-0xffffff>
 1000428:	00200293          	addi	x5,x0,2
 100042c:	fe5214e3          	bne	x4,x5,1000414 <test_35+0x4>
 1000430:	00004eb7          	lui	x29,0x4
 1000434:	02300193          	addi	x3,x0,35
 1000438:	11df1c63          	bne	x30,x29,1000550 <fail>

0100043c <test_36>:
 100043c:	00000213          	addi	x4,x0,0
 1000440:	01f00113          	addi	x2,x0,31
 1000444:	00100093          	addi	x1,x0,1
 1000448:	00000013          	addi	x0,x0,0
 100044c:	00000013          	addi	x0,x0,0
 1000450:	00209f33          	sll	x30,x1,x2
 1000454:	00120213          	addi	x4,x4,1 # 1 <_start-0xffffff>
 1000458:	00200293          	addi	x5,x0,2
 100045c:	fe5212e3          	bne	x4,x5,1000440 <test_36+0x4>
 1000460:	80000eb7          	lui	x29,0x80000
 1000464:	02400193          	addi	x3,x0,36
 1000468:	0fdf1463          	bne	x30,x29,1000550 <fail>

0100046c <test_37>:
 100046c:	00000213          	addi	x4,x0,0
 1000470:	00700113          	addi	x2,x0,7
 1000474:	00000013          	addi	x0,x0,0
 1000478:	00100093          	addi	x1,x0,1
 100047c:	00209f33          	sll	x30,x1,x2
 1000480:	00120213          	addi	x4,x4,1 # 1 <_start-0xffffff>
 1000484:	00200293          	addi	x5,x0,2
 1000488:	fe5214e3          	bne	x4,x5,1000470 <test_37+0x4>
 100048c:	08000e93          	addi	x29,x0,128
 1000490:	02500193          	addi	x3,x0,37
 1000494:	0bdf1e63          	bne	x30,x29,1000550 <fail>

01000498 <test_38>:
 1000498:	00000213          	addi	x4,x0,0
 100049c:	00e00113          	addi	x2,x0,14
 10004a0:	00000013          	addi	x0,x0,0
 10004a4:	00100093          	addi	x1,x0,1
 10004a8:	00000013          	addi	x0,x0,0
 10004ac:	00209f33          	sll	x30,x1,x2
 10004b0:	00120213          	addi	x4,x4,1 # 1 <_start-0xffffff>
 10004b4:	00200293          	addi	x5,x0,2
 10004b8:	fe5212e3          	bne	x4,x5,100049c <test_38+0x4>
 10004bc:	00004eb7          	lui	x29,0x4
 10004c0:	02600193          	addi	x3,x0,38
 10004c4:	09df1663          	bne	x30,x29,1000550 <fail>

010004c8 <test_39>:
 10004c8:	00000213          	addi	x4,x0,0
 10004cc:	01f00113          	addi	x2,x0,31
 10004d0:	00000013          	addi	x0,x0,0
 10004d4:	00000013          	addi	x0,x0,0
 10004d8:	00100093          	addi	x1,x0,1
 10004dc:	00209f33          	sll	x30,x1,x2
 10004e0:	00120213          	addi	x4,x4,1 # 1 <_start-0xffffff>
 10004e4:	00200293          	addi	x5,x0,2
 10004e8:	fe5212e3          	bne	x4,x5,10004cc <test_39+0x4>
 10004ec:	80000eb7          	lui	x29,0x80000
 10004f0:	02700193          	addi	x3,x0,39
 10004f4:	05df1e63          	bne	x30,x29,1000550 <fail>

010004f8 <test_40>:
 10004f8:	00f00093          	addi	x1,x0,15
 10004fc:	00101133          	sll	x2,x0,x1
 1000500:	00000e93          	addi	x29,x0,0
 1000504:	02800193          	addi	x3,x0,40
 1000508:	05d11463          	bne	x2,x29,1000550 <fail>

0100050c <test_41>:
 100050c:	02000093          	addi	x1,x0,32
 1000510:	00009133          	sll	x2,x1,x0
 1000514:	02000e93          	addi	x29,x0,32
 1000518:	02900193          	addi	x3,x0,41
 100051c:	03d11a63          	bne	x2,x29,1000550 <fail>

01000520 <test_42>:
 1000520:	000010b3          	sll	x1,x0,x0
 1000524:	00000e93          	addi	x29,x0,0
 1000528:	02a00193          	addi	x3,x0,42
 100052c:	03d09263          	bne	x1,x29,1000550 <fail>

01000530 <test_43>:
 1000530:	40000093          	addi	x1,x0,1024
 1000534:	00001137          	lui	x2,0x1
 1000538:	80010113          	addi	x2,x2,-2048 # 800 <_start-0xfff800>
 100053c:	00209033          	sll	x0,x1,x2
 1000540:	00000e93          	addi	x29,x0,0
 1000544:	02b00193          	addi	x3,x0,43
 1000548:	01d01463          	bne	x0,x29,1000550 <fail>
 100054c:	00301c63          	bne	x0,x3,1000564 <pass>

01000550 <fail>:
 1000550:	0ff0000f          	fence	iorw,iorw
 1000554:	00018063          	beq	x3,x0,1000554 <fail+0x4>
 1000558:	00119193          	slli	x3,x3,0x1
 100055c:	0011e193          	ori	x3,x3,1
 1000560:	00000073          	ecall

01000564 <pass>:
 1000564:	0ff0000f          	fence	iorw,iorw
 1000568:	00100193          	addi	x3,x0,1
 100056c:	00000073          	ecall
 1000570:	c0001073          	unimp
 1000574:	0000                	c.unimp
 1000576:	0000                	c.unimp
 1000578:	0000                	c.unimp
 100057a:	0000                	c.unimp
 100057c:	0000                	c.unimp
 100057e:	0000                	c.unimp
 1000580:	0000                	c.unimp
 1000582:	0000                	c.unimp

Disassembly of section .text:

01000610 <end_signature>:
 1000610:	0000                	c.unimp
 1000612:	0000                	c.unimp
