
output/rv32ui-p-bge:     file format elf32-littleriscv


Disassembly of section .text.init:

01000000 <_start>:
 1000000:	00200193          	addi	x3,x0,2
 1000004:	00000093          	addi	x1,x0,0
 1000008:	00000113          	addi	x2,x0,0
 100000c:	0020d663          	bge	x1,x2,1000018 <_start+0x18>
 1000010:	30301863          	bne	x0,x3,1000320 <fail>
 1000014:	00301663          	bne	x0,x3,1000020 <test_3>
 1000018:	fe20dee3          	bge	x1,x2,1000014 <_start+0x14>
 100001c:	30301263          	bne	x0,x3,1000320 <fail>

01000020 <test_3>:
 1000020:	00300193          	addi	x3,x0,3
 1000024:	00100093          	addi	x1,x0,1
 1000028:	00100113          	addi	x2,x0,1
 100002c:	0020d663          	bge	x1,x2,1000038 <test_3+0x18>
 1000030:	2e301863          	bne	x0,x3,1000320 <fail>
 1000034:	00301663          	bne	x0,x3,1000040 <test_4>
 1000038:	fe20dee3          	bge	x1,x2,1000034 <test_3+0x14>
 100003c:	2e301263          	bne	x0,x3,1000320 <fail>

01000040 <test_4>:
 1000040:	00400193          	addi	x3,x0,4
 1000044:	fff00093          	addi	x1,x0,-1
 1000048:	fff00113          	addi	x2,x0,-1
 100004c:	0020d663          	bge	x1,x2,1000058 <test_4+0x18>
 1000050:	2c301863          	bne	x0,x3,1000320 <fail>
 1000054:	00301663          	bne	x0,x3,1000060 <test_5>
 1000058:	fe20dee3          	bge	x1,x2,1000054 <test_4+0x14>
 100005c:	2c301263          	bne	x0,x3,1000320 <fail>

01000060 <test_5>:
 1000060:	00500193          	addi	x3,x0,5
 1000064:	00100093          	addi	x1,x0,1
 1000068:	00000113          	addi	x2,x0,0
 100006c:	0020d663          	bge	x1,x2,1000078 <test_5+0x18>
 1000070:	2a301863          	bne	x0,x3,1000320 <fail>
 1000074:	00301663          	bne	x0,x3,1000080 <test_6>
 1000078:	fe20dee3          	bge	x1,x2,1000074 <test_5+0x14>
 100007c:	2a301263          	bne	x0,x3,1000320 <fail>

01000080 <test_6>:
 1000080:	00600193          	addi	x3,x0,6
 1000084:	00100093          	addi	x1,x0,1
 1000088:	fff00113          	addi	x2,x0,-1
 100008c:	0020d663          	bge	x1,x2,1000098 <test_6+0x18>
 1000090:	28301863          	bne	x0,x3,1000320 <fail>
 1000094:	00301663          	bne	x0,x3,10000a0 <test_7>
 1000098:	fe20dee3          	bge	x1,x2,1000094 <test_6+0x14>
 100009c:	28301263          	bne	x0,x3,1000320 <fail>

010000a0 <test_7>:
 10000a0:	00700193          	addi	x3,x0,7
 10000a4:	fff00093          	addi	x1,x0,-1
 10000a8:	ffe00113          	addi	x2,x0,-2
 10000ac:	0020d663          	bge	x1,x2,10000b8 <test_7+0x18>
 10000b0:	26301863          	bne	x0,x3,1000320 <fail>
 10000b4:	00301663          	bne	x0,x3,10000c0 <test_8>
 10000b8:	fe20dee3          	bge	x1,x2,10000b4 <test_7+0x14>
 10000bc:	26301263          	bne	x0,x3,1000320 <fail>

010000c0 <test_8>:
 10000c0:	00800193          	addi	x3,x0,8
 10000c4:	00000093          	addi	x1,x0,0
 10000c8:	00100113          	addi	x2,x0,1
 10000cc:	0020d463          	bge	x1,x2,10000d4 <test_8+0x14>
 10000d0:	00301463          	bne	x0,x3,10000d8 <test_8+0x18>
 10000d4:	24301663          	bne	x0,x3,1000320 <fail>
 10000d8:	fe20dee3          	bge	x1,x2,10000d4 <test_8+0x14>

010000dc <test_9>:
 10000dc:	00900193          	addi	x3,x0,9
 10000e0:	fff00093          	addi	x1,x0,-1
 10000e4:	00100113          	addi	x2,x0,1
 10000e8:	0020d463          	bge	x1,x2,10000f0 <test_9+0x14>
 10000ec:	00301463          	bne	x0,x3,10000f4 <test_9+0x18>
 10000f0:	22301863          	bne	x0,x3,1000320 <fail>
 10000f4:	fe20dee3          	bge	x1,x2,10000f0 <test_9+0x14>

010000f8 <test_10>:
 10000f8:	00a00193          	addi	x3,x0,10
 10000fc:	ffe00093          	addi	x1,x0,-2
 1000100:	fff00113          	addi	x2,x0,-1
 1000104:	0020d463          	bge	x1,x2,100010c <test_10+0x14>
 1000108:	00301463          	bne	x0,x3,1000110 <test_10+0x18>
 100010c:	20301a63          	bne	x0,x3,1000320 <fail>
 1000110:	fe20dee3          	bge	x1,x2,100010c <test_10+0x14>

01000114 <test_11>:
 1000114:	00b00193          	addi	x3,x0,11
 1000118:	ffe00093          	addi	x1,x0,-2
 100011c:	00100113          	addi	x2,x0,1
 1000120:	0020d463          	bge	x1,x2,1000128 <test_11+0x14>
 1000124:	00301463          	bne	x0,x3,100012c <test_11+0x18>
 1000128:	1e301c63          	bne	x0,x3,1000320 <fail>
 100012c:	fe20dee3          	bge	x1,x2,1000128 <test_11+0x14>

01000130 <test_12>:
 1000130:	00c00193          	addi	x3,x0,12
 1000134:	00000213          	addi	x4,x0,0
 1000138:	fff00093          	addi	x1,x0,-1
 100013c:	00000113          	addi	x2,x0,0
 1000140:	1e20d063          	bge	x1,x2,1000320 <fail>
 1000144:	00120213          	addi	x4,x4,1 # 1 <_start-0xffffff>
 1000148:	00200293          	addi	x5,x0,2
 100014c:	fe5216e3          	bne	x4,x5,1000138 <test_12+0x8>

01000150 <test_13>:
 1000150:	00d00193          	addi	x3,x0,13
 1000154:	00000213          	addi	x4,x0,0
 1000158:	fff00093          	addi	x1,x0,-1
 100015c:	00000113          	addi	x2,x0,0
 1000160:	00000013          	addi	x0,x0,0
 1000164:	1a20de63          	bge	x1,x2,1000320 <fail>
 1000168:	00120213          	addi	x4,x4,1 # 1 <_start-0xffffff>
 100016c:	00200293          	addi	x5,x0,2
 1000170:	fe5214e3          	bne	x4,x5,1000158 <test_13+0x8>

01000174 <test_14>:
 1000174:	00e00193          	addi	x3,x0,14
 1000178:	00000213          	addi	x4,x0,0
 100017c:	fff00093          	addi	x1,x0,-1
 1000180:	00000113          	addi	x2,x0,0
 1000184:	00000013          	addi	x0,x0,0
 1000188:	00000013          	addi	x0,x0,0
 100018c:	1820da63          	bge	x1,x2,1000320 <fail>
 1000190:	00120213          	addi	x4,x4,1 # 1 <_start-0xffffff>
 1000194:	00200293          	addi	x5,x0,2
 1000198:	fe5212e3          	bne	x4,x5,100017c <test_14+0x8>

0100019c <test_15>:
 100019c:	00f00193          	addi	x3,x0,15
 10001a0:	00000213          	addi	x4,x0,0
 10001a4:	fff00093          	addi	x1,x0,-1
 10001a8:	00000013          	addi	x0,x0,0
 10001ac:	00000113          	addi	x2,x0,0
 10001b0:	1620d863          	bge	x1,x2,1000320 <fail>
 10001b4:	00120213          	addi	x4,x4,1 # 1 <_start-0xffffff>
 10001b8:	00200293          	addi	x5,x0,2
 10001bc:	fe5214e3          	bne	x4,x5,10001a4 <test_15+0x8>

010001c0 <test_16>:
 10001c0:	01000193          	addi	x3,x0,16
 10001c4:	00000213          	addi	x4,x0,0
 10001c8:	fff00093          	addi	x1,x0,-1
 10001cc:	00000013          	addi	x0,x0,0
 10001d0:	00000113          	addi	x2,x0,0
 10001d4:	00000013          	addi	x0,x0,0
 10001d8:	1420d463          	bge	x1,x2,1000320 <fail>
 10001dc:	00120213          	addi	x4,x4,1 # 1 <_start-0xffffff>
 10001e0:	00200293          	addi	x5,x0,2
 10001e4:	fe5212e3          	bne	x4,x5,10001c8 <test_16+0x8>

010001e8 <test_17>:
 10001e8:	01100193          	addi	x3,x0,17
 10001ec:	00000213          	addi	x4,x0,0
 10001f0:	fff00093          	addi	x1,x0,-1
 10001f4:	00000013          	addi	x0,x0,0
 10001f8:	00000013          	addi	x0,x0,0
 10001fc:	00000113          	addi	x2,x0,0
 1000200:	1220d063          	bge	x1,x2,1000320 <fail>
 1000204:	00120213          	addi	x4,x4,1 # 1 <_start-0xffffff>
 1000208:	00200293          	addi	x5,x0,2
 100020c:	fe5212e3          	bne	x4,x5,10001f0 <test_17+0x8>

01000210 <test_18>:
 1000210:	01200193          	addi	x3,x0,18
 1000214:	00000213          	addi	x4,x0,0
 1000218:	fff00093          	addi	x1,x0,-1
 100021c:	00000113          	addi	x2,x0,0
 1000220:	1020d063          	bge	x1,x2,1000320 <fail>
 1000224:	00120213          	addi	x4,x4,1 # 1 <_start-0xffffff>
 1000228:	00200293          	addi	x5,x0,2
 100022c:	fe5216e3          	bne	x4,x5,1000218 <test_18+0x8>

01000230 <test_19>:
 1000230:	01300193          	addi	x3,x0,19
 1000234:	00000213          	addi	x4,x0,0
 1000238:	fff00093          	addi	x1,x0,-1
 100023c:	00000113          	addi	x2,x0,0
 1000240:	00000013          	addi	x0,x0,0
 1000244:	0c20de63          	bge	x1,x2,1000320 <fail>
 1000248:	00120213          	addi	x4,x4,1 # 1 <_start-0xffffff>
 100024c:	00200293          	addi	x5,x0,2
 1000250:	fe5214e3          	bne	x4,x5,1000238 <test_19+0x8>

01000254 <test_20>:
 1000254:	01400193          	addi	x3,x0,20
 1000258:	00000213          	addi	x4,x0,0
 100025c:	fff00093          	addi	x1,x0,-1
 1000260:	00000113          	addi	x2,x0,0
 1000264:	00000013          	addi	x0,x0,0
 1000268:	00000013          	addi	x0,x0,0
 100026c:	0a20da63          	bge	x1,x2,1000320 <fail>
 1000270:	00120213          	addi	x4,x4,1 # 1 <_start-0xffffff>
 1000274:	00200293          	addi	x5,x0,2
 1000278:	fe5212e3          	bne	x4,x5,100025c <test_20+0x8>

0100027c <test_21>:
 100027c:	01500193          	addi	x3,x0,21
 1000280:	00000213          	addi	x4,x0,0
 1000284:	fff00093          	addi	x1,x0,-1
 1000288:	00000013          	addi	x0,x0,0
 100028c:	00000113          	addi	x2,x0,0
 1000290:	0820d863          	bge	x1,x2,1000320 <fail>
 1000294:	00120213          	addi	x4,x4,1 # 1 <_start-0xffffff>
 1000298:	00200293          	addi	x5,x0,2
 100029c:	fe5214e3          	bne	x4,x5,1000284 <test_21+0x8>

010002a0 <test_22>:
 10002a0:	01600193          	addi	x3,x0,22
 10002a4:	00000213          	addi	x4,x0,0
 10002a8:	fff00093          	addi	x1,x0,-1
 10002ac:	00000013          	addi	x0,x0,0
 10002b0:	00000113          	addi	x2,x0,0
 10002b4:	00000013          	addi	x0,x0,0
 10002b8:	0620d463          	bge	x1,x2,1000320 <fail>
 10002bc:	00120213          	addi	x4,x4,1 # 1 <_start-0xffffff>
 10002c0:	00200293          	addi	x5,x0,2
 10002c4:	fe5212e3          	bne	x4,x5,10002a8 <test_22+0x8>

010002c8 <test_23>:
 10002c8:	01700193          	addi	x3,x0,23
 10002cc:	00000213          	addi	x4,x0,0
 10002d0:	fff00093          	addi	x1,x0,-1
 10002d4:	00000013          	addi	x0,x0,0
 10002d8:	00000013          	addi	x0,x0,0
 10002dc:	00000113          	addi	x2,x0,0
 10002e0:	0420d063          	bge	x1,x2,1000320 <fail>
 10002e4:	00120213          	addi	x4,x4,1 # 1 <_start-0xffffff>
 10002e8:	00200293          	addi	x5,x0,2
 10002ec:	fe5212e3          	bne	x4,x5,10002d0 <test_23+0x8>

010002f0 <test_24>:
 10002f0:	00100093          	addi	x1,x0,1
 10002f4:	0000da63          	bge	x1,x0,1000308 <test_24+0x18>
 10002f8:	00108093          	addi	x1,x1,1
 10002fc:	00108093          	addi	x1,x1,1
 1000300:	00108093          	addi	x1,x1,1
 1000304:	00108093          	addi	x1,x1,1
 1000308:	00108093          	addi	x1,x1,1
 100030c:	00108093          	addi	x1,x1,1
 1000310:	00300e93          	addi	x29,x0,3
 1000314:	01800193          	addi	x3,x0,24
 1000318:	01d09463          	bne	x1,x29,1000320 <fail>
 100031c:	00301c63          	bne	x0,x3,1000334 <pass>

01000320 <fail>:
 1000320:	0ff0000f          	fence	iorw,iorw
 1000324:	00018063          	beq	x3,x0,1000324 <fail+0x4>
 1000328:	00119193          	slli	x3,x3,0x1
 100032c:	0011e193          	ori	x3,x3,1
 1000330:	00000073          	ecall

01000334 <pass>:
 1000334:	0ff0000f          	fence	iorw,iorw
 1000338:	00100193          	addi	x3,x0,1
 100033c:	00000073          	ecall
 1000340:	c0001073          	unimp

Disassembly of section .text:

010003d0 <end_signature>:
 10003d0:	0000                	c.unimp
 10003d2:	0000                	c.unimp
