
output/rv32ui-p-bne:     file format elf32-littleriscv


Disassembly of section .text.init:

01000000 <_start>:
 1000000:	00200193          	addi	x3,x0,2
 1000004:	00000093          	addi	x1,x0,0
 1000008:	00100113          	addi	x2,x0,1
 100000c:	00209663          	bne	x1,x2,1000018 <_start+0x18>
 1000010:	2a301a63          	bne	x0,x3,10002c4 <fail>
 1000014:	00301663          	bne	x0,x3,1000020 <test_3>
 1000018:	fe209ee3          	bne	x1,x2,1000014 <_start+0x14>
 100001c:	2a301463          	bne	x0,x3,10002c4 <fail>

01000020 <test_3>:
 1000020:	00300193          	addi	x3,x0,3
 1000024:	00100093          	addi	x1,x0,1
 1000028:	00000113          	addi	x2,x0,0
 100002c:	00209663          	bne	x1,x2,1000038 <test_3+0x18>
 1000030:	28301a63          	bne	x0,x3,10002c4 <fail>
 1000034:	00301663          	bne	x0,x3,1000040 <test_4>
 1000038:	fe209ee3          	bne	x1,x2,1000034 <test_3+0x14>
 100003c:	28301463          	bne	x0,x3,10002c4 <fail>

01000040 <test_4>:
 1000040:	00400193          	addi	x3,x0,4
 1000044:	fff00093          	addi	x1,x0,-1
 1000048:	00100113          	addi	x2,x0,1
 100004c:	00209663          	bne	x1,x2,1000058 <test_4+0x18>
 1000050:	26301a63          	bne	x0,x3,10002c4 <fail>
 1000054:	00301663          	bne	x0,x3,1000060 <test_5>
 1000058:	fe209ee3          	bne	x1,x2,1000054 <test_4+0x14>
 100005c:	26301463          	bne	x0,x3,10002c4 <fail>

01000060 <test_5>:
 1000060:	00500193          	addi	x3,x0,5
 1000064:	00100093          	addi	x1,x0,1
 1000068:	fff00113          	addi	x2,x0,-1
 100006c:	00209663          	bne	x1,x2,1000078 <test_5+0x18>
 1000070:	24301a63          	bne	x0,x3,10002c4 <fail>
 1000074:	00301663          	bne	x0,x3,1000080 <test_6>
 1000078:	fe209ee3          	bne	x1,x2,1000074 <test_5+0x14>
 100007c:	24301463          	bne	x0,x3,10002c4 <fail>

01000080 <test_6>:
 1000080:	00600193          	addi	x3,x0,6
 1000084:	00000093          	addi	x1,x0,0
 1000088:	00000113          	addi	x2,x0,0
 100008c:	00209463          	bne	x1,x2,1000094 <test_6+0x14>
 1000090:	00301463          	bne	x0,x3,1000098 <test_6+0x18>
 1000094:	22301863          	bne	x0,x3,10002c4 <fail>
 1000098:	fe209ee3          	bne	x1,x2,1000094 <test_6+0x14>

0100009c <test_7>:
 100009c:	00700193          	addi	x3,x0,7
 10000a0:	00100093          	addi	x1,x0,1
 10000a4:	00100113          	addi	x2,x0,1
 10000a8:	00209463          	bne	x1,x2,10000b0 <test_7+0x14>
 10000ac:	00301463          	bne	x0,x3,10000b4 <test_7+0x18>
 10000b0:	20301a63          	bne	x0,x3,10002c4 <fail>
 10000b4:	fe209ee3          	bne	x1,x2,10000b0 <test_7+0x14>

010000b8 <test_8>:
 10000b8:	00800193          	addi	x3,x0,8
 10000bc:	fff00093          	addi	x1,x0,-1
 10000c0:	fff00113          	addi	x2,x0,-1
 10000c4:	00209463          	bne	x1,x2,10000cc <test_8+0x14>
 10000c8:	00301463          	bne	x0,x3,10000d0 <test_8+0x18>
 10000cc:	1e301c63          	bne	x0,x3,10002c4 <fail>
 10000d0:	fe209ee3          	bne	x1,x2,10000cc <test_8+0x14>

010000d4 <test_9>:
 10000d4:	00900193          	addi	x3,x0,9
 10000d8:	00000213          	addi	x4,x0,0
 10000dc:	00000093          	addi	x1,x0,0
 10000e0:	00000113          	addi	x2,x0,0
 10000e4:	1e209063          	bne	x1,x2,10002c4 <fail>
 10000e8:	00120213          	addi	x4,x4,1 # 1 <_start-0xffffff>
 10000ec:	00200293          	addi	x5,x0,2
 10000f0:	fe5216e3          	bne	x4,x5,10000dc <test_9+0x8>

010000f4 <test_10>:
 10000f4:	00a00193          	addi	x3,x0,10
 10000f8:	00000213          	addi	x4,x0,0
 10000fc:	00000093          	addi	x1,x0,0
 1000100:	00000113          	addi	x2,x0,0
 1000104:	00000013          	addi	x0,x0,0
 1000108:	1a209e63          	bne	x1,x2,10002c4 <fail>
 100010c:	00120213          	addi	x4,x4,1 # 1 <_start-0xffffff>
 1000110:	00200293          	addi	x5,x0,2
 1000114:	fe5214e3          	bne	x4,x5,10000fc <test_10+0x8>

01000118 <test_11>:
 1000118:	00b00193          	addi	x3,x0,11
 100011c:	00000213          	addi	x4,x0,0
 1000120:	00000093          	addi	x1,x0,0
 1000124:	00000113          	addi	x2,x0,0
 1000128:	00000013          	addi	x0,x0,0
 100012c:	00000013          	addi	x0,x0,0
 1000130:	18209a63          	bne	x1,x2,10002c4 <fail>
 1000134:	00120213          	addi	x4,x4,1 # 1 <_start-0xffffff>
 1000138:	00200293          	addi	x5,x0,2
 100013c:	fe5212e3          	bne	x4,x5,1000120 <test_11+0x8>

01000140 <test_12>:
 1000140:	00c00193          	addi	x3,x0,12
 1000144:	00000213          	addi	x4,x0,0
 1000148:	00000093          	addi	x1,x0,0
 100014c:	00000013          	addi	x0,x0,0
 1000150:	00000113          	addi	x2,x0,0
 1000154:	16209863          	bne	x1,x2,10002c4 <fail>
 1000158:	00120213          	addi	x4,x4,1 # 1 <_start-0xffffff>
 100015c:	00200293          	addi	x5,x0,2
 1000160:	fe5214e3          	bne	x4,x5,1000148 <test_12+0x8>

01000164 <test_13>:
 1000164:	00d00193          	addi	x3,x0,13
 1000168:	00000213          	addi	x4,x0,0
 100016c:	00000093          	addi	x1,x0,0
 1000170:	00000013          	addi	x0,x0,0
 1000174:	00000113          	addi	x2,x0,0
 1000178:	00000013          	addi	x0,x0,0
 100017c:	14209463          	bne	x1,x2,10002c4 <fail>
 1000180:	00120213          	addi	x4,x4,1 # 1 <_start-0xffffff>
 1000184:	00200293          	addi	x5,x0,2
 1000188:	fe5212e3          	bne	x4,x5,100016c <test_13+0x8>

0100018c <test_14>:
 100018c:	00e00193          	addi	x3,x0,14
 1000190:	00000213          	addi	x4,x0,0
 1000194:	00000093          	addi	x1,x0,0
 1000198:	00000013          	addi	x0,x0,0
 100019c:	00000013          	addi	x0,x0,0
 10001a0:	00000113          	addi	x2,x0,0
 10001a4:	12209063          	bne	x1,x2,10002c4 <fail>
 10001a8:	00120213          	addi	x4,x4,1 # 1 <_start-0xffffff>
 10001ac:	00200293          	addi	x5,x0,2
 10001b0:	fe5212e3          	bne	x4,x5,1000194 <test_14+0x8>

010001b4 <test_15>:
 10001b4:	00f00193          	addi	x3,x0,15
 10001b8:	00000213          	addi	x4,x0,0
 10001bc:	00000093          	addi	x1,x0,0
 10001c0:	00000113          	addi	x2,x0,0
 10001c4:	10209063          	bne	x1,x2,10002c4 <fail>
 10001c8:	00120213          	addi	x4,x4,1 # 1 <_start-0xffffff>
 10001cc:	00200293          	addi	x5,x0,2
 10001d0:	fe5216e3          	bne	x4,x5,10001bc <test_15+0x8>

010001d4 <test_16>:
 10001d4:	01000193          	addi	x3,x0,16
 10001d8:	00000213          	addi	x4,x0,0
 10001dc:	00000093          	addi	x1,x0,0
 10001e0:	00000113          	addi	x2,x0,0
 10001e4:	00000013          	addi	x0,x0,0
 10001e8:	0c209e63          	bne	x1,x2,10002c4 <fail>
 10001ec:	00120213          	addi	x4,x4,1 # 1 <_start-0xffffff>
 10001f0:	00200293          	addi	x5,x0,2
 10001f4:	fe5214e3          	bne	x4,x5,10001dc <test_16+0x8>

010001f8 <test_17>:
 10001f8:	01100193          	addi	x3,x0,17
 10001fc:	00000213          	addi	x4,x0,0
 1000200:	00000093          	addi	x1,x0,0
 1000204:	00000113          	addi	x2,x0,0
 1000208:	00000013          	addi	x0,x0,0
 100020c:	00000013          	addi	x0,x0,0
 1000210:	0a209a63          	bne	x1,x2,10002c4 <fail>
 1000214:	00120213          	addi	x4,x4,1 # 1 <_start-0xffffff>
 1000218:	00200293          	addi	x5,x0,2
 100021c:	fe5212e3          	bne	x4,x5,1000200 <test_17+0x8>

01000220 <test_18>:
 1000220:	01200193          	addi	x3,x0,18
 1000224:	00000213          	addi	x4,x0,0
 1000228:	00000093          	addi	x1,x0,0
 100022c:	00000013          	addi	x0,x0,0
 1000230:	00000113          	addi	x2,x0,0
 1000234:	08209863          	bne	x1,x2,10002c4 <fail>
 1000238:	00120213          	addi	x4,x4,1 # 1 <_start-0xffffff>
 100023c:	00200293          	addi	x5,x0,2
 1000240:	fe5214e3          	bne	x4,x5,1000228 <test_18+0x8>

01000244 <test_19>:
 1000244:	01300193          	addi	x3,x0,19
 1000248:	00000213          	addi	x4,x0,0
 100024c:	00000093          	addi	x1,x0,0
 1000250:	00000013          	addi	x0,x0,0
 1000254:	00000113          	addi	x2,x0,0
 1000258:	00000013          	addi	x0,x0,0
 100025c:	06209463          	bne	x1,x2,10002c4 <fail>
 1000260:	00120213          	addi	x4,x4,1 # 1 <_start-0xffffff>
 1000264:	00200293          	addi	x5,x0,2
 1000268:	fe5212e3          	bne	x4,x5,100024c <test_19+0x8>

0100026c <test_20>:
 100026c:	01400193          	addi	x3,x0,20
 1000270:	00000213          	addi	x4,x0,0
 1000274:	00000093          	addi	x1,x0,0
 1000278:	00000013          	addi	x0,x0,0
 100027c:	00000013          	addi	x0,x0,0
 1000280:	00000113          	addi	x2,x0,0
 1000284:	04209063          	bne	x1,x2,10002c4 <fail>
 1000288:	00120213          	addi	x4,x4,1 # 1 <_start-0xffffff>
 100028c:	00200293          	addi	x5,x0,2
 1000290:	fe5212e3          	bne	x4,x5,1000274 <test_20+0x8>

01000294 <test_21>:
 1000294:	00100093          	addi	x1,x0,1
 1000298:	00009a63          	bne	x1,x0,10002ac <test_21+0x18>
 100029c:	00108093          	addi	x1,x1,1
 10002a0:	00108093          	addi	x1,x1,1
 10002a4:	00108093          	addi	x1,x1,1
 10002a8:	00108093          	addi	x1,x1,1
 10002ac:	00108093          	addi	x1,x1,1
 10002b0:	00108093          	addi	x1,x1,1
 10002b4:	00300e93          	addi	x29,x0,3
 10002b8:	01500193          	addi	x3,x0,21
 10002bc:	01d09463          	bne	x1,x29,10002c4 <fail>
 10002c0:	00301c63          	bne	x0,x3,10002d8 <pass>

010002c4 <fail>:
 10002c4:	0ff0000f          	fence	iorw,iorw
 10002c8:	00018063          	beq	x3,x0,10002c8 <fail+0x4>
 10002cc:	00119193          	slli	x3,x3,0x1
 10002d0:	0011e193          	ori	x3,x3,1
 10002d4:	00000073          	ecall

010002d8 <pass>:
 10002d8:	0ff0000f          	fence	iorw,iorw
 10002dc:	00100193          	addi	x3,x0,1
 10002e0:	00000073          	ecall
 10002e4:	c0001073          	unimp
 10002e8:	0000                	c.unimp
 10002ea:	0000                	c.unimp
 10002ec:	0000                	c.unimp
 10002ee:	0000                	c.unimp
 10002f0:	0000                	c.unimp
 10002f2:	0000                	c.unimp
 10002f4:	0000                	c.unimp
 10002f6:	0000                	c.unimp
 10002f8:	0000                	c.unimp
 10002fa:	0000                	c.unimp
 10002fc:	0000                	c.unimp
 10002fe:	0000                	c.unimp
 1000300:	0000                	c.unimp
 1000302:	0000                	c.unimp

Disassembly of section .text:

01000390 <end_signature>:
 1000390:	0000                	c.unimp
 1000392:	0000                	c.unimp
